; Function Attrs: mustprogress nounwind uwtable
define hidden noundef nonnull align 8 dereferenceable(73) ptr @_ZN4LIEF15vector_iostream3putEh(ptr noundef nonnull returned align 8 dereferenceable(73) %0, i8 noundef zeroext %1) local_unnamed_addr #2 align 2 {
  %3 = getelementptr inbounds nuw i8, ptr %0, i64 64
  %4 = load ptr, ptr %3, align 8, !tbaa !6
  %5 = getelementptr inbounds nuw i8, ptr %4, i64 8
  %6 = load ptr, ptr %5, align 8, !tbaa !27
  %7 = load ptr, ptr %4, align 8, !tbaa !28
  %8 = ptrtoint ptr %6 to i64
  %9 = ptrtoint ptr %7 to i64
  %10 = sub i64 %8, %9
  %11 = getelementptr inbounds nuw i8, ptr %0, i64 24
  %.sroa.0.0.copyload.i = load i64, ptr %11, align 8, !tbaa !29
  %12 = add i64 %.sroa.0.0.copyload.i, 1
  %13 = icmp ult i64 %10, %12
  br i1 %13, label %14, label %15

14:                                               ; preds = %2
  tail call void @_ZNSt6vectorIhSaIhEE6resizeEm(ptr noundef nonnull align 8 dereferenceable(24) %4, i64 noundef %12)
  %.pre = load ptr, ptr %3, align 8, !tbaa !6
  %.sroa.0.0.copyload.i6.pre = load i64, ptr %11, align 8, !tbaa !29
  %.pre16 = load ptr, ptr %.pre, align 8, !tbaa !28
  br label %15

15:                                               ; preds = %14, %2
  %16 = phi ptr [ %.pre16, %14 ], [ %7, %2 ]
  %.sroa.0.0.copyload.i6 = phi i64 [ %.sroa.0.0.copyload.i6.pre, %14 ], [ %.sroa.0.0.copyload.i, %2 ]
  %17 = getelementptr inbounds nuw i8, ptr %16, i64 %.sroa.0.0.copyload.i6
  store i8 %1, ptr %17, align 1, !tbaa !30
  %18 = load i64, ptr %11, align 8, !tbaa !31
  %19 = add nsw i64 %18, 1
  store i64 %19, ptr %11, align 8, !tbaa !31
  ret ptr %0
}